target datalayout = "e-m:e-p270:32:32-p271:32:32-p272:64:64-i64:64-i128:128-f80:128-n8:16:32:64-S128"
target triple = "x86_64-pc-linux-gnu"

%struct.H5FD_splitter_fapl_t = type { i64, i64, [4097 x i8], [4097 x i8], i8 }
%struct.H5FD_splitter_t = type { %struct.H5FD_t, i32, %struct.H5FD_splitter_fapl_t, ptr, ptr, ptr }
%struct.H5FD_t = type { i64, ptr, i64, i32, i64, i64, i64, i64, i64, i8 }

@H5FD_init_g = external global i8, align 1
@H5_libterm_g = external global i8, align 1
@.str.41 = private unnamed_addr constant [8 x i8] c"%s: %s\0A\00", align 1

; Function Attrs: nounwind uwtable
define internal i32 @H5FD__splitter_log_error(ptr noundef %0, ptr noundef %1, ptr noundef %2) #0 {
  %4 = alloca ptr, align 8
  %5 = alloca ptr, align 8
  %6 = alloca ptr, align 8
  %7 = alloca i32, align 4
  %8 = alloca i64, align 8
  %9 = alloca ptr, align 8
  store ptr %0, ptr %4, align 8, !tbaa !40
  store ptr %1, ptr %5, align 8, !tbaa !46
  store ptr %2, ptr %6, align 8, !tbaa !46
  call void @llvm.lifetime.start.p0(i64 4, ptr %7) #10
  store i32 0, ptr %7, align 4, !tbaa !3
  %10 = load i8, ptr @H5FD_init_g, align 1, !tbaa !7, !range !9, !noundef !10
  %11 = trunc i8 %10 to i1
  br i1 %11, label %16, label %12

12:                                               ; preds = %3
  %13 = load i8, ptr @H5_libterm_g, align 1, !tbaa !7, !range !9, !noundef !10
  %14 = trunc i8 %13 to i1
  %15 = xor i1 %14, true
  br label %16

16:                                               ; preds = %12, %3
  %17 = phi i1 [ true, %3 ], [ %15, %12 ]
  %18 = xor i1 %17, true
  %19 = xor i1 %18, true
  %20 = zext i1 %19 to i32
  %21 = sext i32 %20 to i64
  %22 = call i64 @llvm.expect.i64(i64 %21, i64 1)
  %23 = icmp ne i64 %22, 0
  br i1 %23, label %24, label %69

24:                                               ; preds = %16
  %25 = load ptr, ptr %4, align 8, !tbaa !40
  %26 = getelementptr inbounds nuw %struct.H5FD_splitter_t, ptr %25, i32 0, i32 5
  %27 = load ptr, ptr %26, align 8, !tbaa !51
  %28 = icmp ne ptr %27, null
  br i1 %28, label %29, label %68

29:                                               ; preds = %24
  call void @llvm.lifetime.start.p0(i64 8, ptr %8) #10
  call void @llvm.lifetime.start.p0(i64 8, ptr %9) #10
  %30 = load ptr, ptr %5, align 8, !tbaa !46
  %31 = call i64 @strlen(ptr noundef %30) #12
  %32 = load ptr, ptr %6, align 8, !tbaa !46
  %33 = call i64 @strlen(ptr noundef %32) #12
  %34 = add i64 %31, %33
  %35 = add i64 %34, 3
  store i64 %35, ptr %8, align 8, !tbaa !11
  %36 = load i64, ptr %8, align 8, !tbaa !11
  %37 = add i64 %36, 1
  %38 = mul i64 1, %37
  %39 = call noalias ptr @malloc(i64 noundef %38) #13
  store ptr %39, ptr %9, align 8, !tbaa !46
  %40 = load ptr, ptr %9, align 8, !tbaa !46
  %41 = icmp eq ptr null, %40
  br i1 %41, label %42, label %43

42:                                               ; preds = %29
  store i32 -1, ptr %7, align 4, !tbaa !3
  br label %66

43:                                               ; preds = %29
  %44 = load i64, ptr %8, align 8, !tbaa !11
  %45 = load ptr, ptr %9, align 8, !tbaa !46
  %46 = load i64, ptr %8, align 8, !tbaa !11
  %47 = add i64 %46, 1
  %48 = load ptr, ptr %5, align 8, !tbaa !46
  %49 = load ptr, ptr %6, align 8, !tbaa !46
  %50 = call i32 (ptr, i64, ptr, ...) @snprintf(ptr noundef %45, i64 noundef %47, ptr noundef @.str.41, ptr noundef %48, ptr noundef %49) #10
  %51 = sext i32 %50 to i64
  %52 = icmp ult i64 %44, %51
  br i1 %52, label %53, label %54

53:                                               ; preds = %43
  store i32 -1, ptr %7, align 4, !tbaa !3
  br label %65

54:                                               ; preds = %43
  %55 = load i64, ptr %8, align 8, !tbaa !11
  %56 = load ptr, ptr %9, align 8, !tbaa !46
  %57 = load i64, ptr %8, align 8, !tbaa !11
  %58 = load ptr, ptr %4, align 8, !tbaa !40
  %59 = getelementptr inbounds nuw %struct.H5FD_splitter_t, ptr %58, i32 0, i32 5
  %60 = load ptr, ptr %59, align 8, !tbaa !51
  %61 = call i64 @fwrite(ptr noundef %56, i64 noundef 1, i64 noundef %57, ptr noundef %60)
  %62 = icmp ne i64 %55, %61
  br i1 %62, label %63, label %64

63:                                               ; preds = %54
  store i32 -1, ptr %7, align 4, !tbaa !3
  br label %64

64:                                               ; preds = %63, %54
  br label %65

65:                                               ; preds = %64, %53
  br label %66

66:                                               ; preds = %65, %42
  %67 = load ptr, ptr %9, align 8, !tbaa !46
  call void @free(ptr noundef %67) #10
  call void @llvm.lifetime.end.p0(i64 8, ptr %9) #10
  call void @llvm.lifetime.end.p0(i64 8, ptr %8) #10
  br label %68

68:                                               ; preds = %66, %24
  br label %69

69:                                               ; preds = %68, %16
  %70 = load i32, ptr %7, align 4, !tbaa !3
  call void @llvm.lifetime.end.p0(i64 4, ptr %7) #10
  ret i32 %70
}