; Function Attrs: nounwind uwtable
define internal fastcc void @H5FD__splitter_log_error(ptr noundef readonly captures(none) %0, ptr noundef %1, ptr noundef %2) unnamed_addr #0 {
  %4 = load i8, ptr @H5FD_init_g, align 1, !tbaa !3, !range !7, !noundef !8
  %5 = trunc nuw i8 %4 to i1
  %6 = load i8, ptr @H5_libterm_g, align 1, !range !7
  %7 = trunc nuw i8 %6 to i1
  %8 = xor i1 %7, true
  %9 = select i1 %5, i1 true, i1 %8
  br i1 %9, label %10, label %29, !prof !9

10:                                               ; preds = %3
  %11 = getelementptr inbounds nuw i8, ptr %0, i64 8320
  %12 = load ptr, ptr %11, align 8, !tbaa !40
  %.not = icmp eq ptr %12, null
  br i1 %.not, label %29, label %13

13:                                               ; preds = %10
  %14 = tail call i64 @strlen(ptr noundef nonnull dereferenceable(1) %1) #14
  %15 = tail call i64 @strlen(ptr noundef nonnull dereferenceable(1) %2) #14
  %16 = add i64 %15, %14
  %17 = add i64 %16, 3
  %18 = add i64 %16, 4
  %19 = tail call noalias ptr @malloc(i64 noundef %18) #15
  %20 = icmp eq ptr %19, null
  br i1 %20, label %28, label %21

21:                                               ; preds = %13
  %22 = tail call i32 (ptr, i64, ptr, ...) @snprintf(ptr noundef nonnull %19, i64 noundef %18, ptr noundef nonnull @.str.41, ptr noundef nonnull %1, ptr noundef nonnull %2) #12
  %23 = sext i32 %22 to i64
  %24 = icmp ult i64 %17, %23
  br i1 %24, label %28, label %25

25:                                               ; preds = %21
  %26 = load ptr, ptr %11, align 8, !tbaa !40
  %27 = tail call i64 @fwrite(ptr noundef nonnull %19, i64 noundef 1, i64 noundef %17, ptr noundef %26)
  br label %28

28:                                               ; preds = %25, %21, %13
  tail call void @free(ptr noundef %19) #12
  br label %29

29:                                               ; preds = %10, %28, %3
  ret void
}